target datalayout = "e-m:e-p270:32:32-p271:32:32-p272:64:64-i64:64-i128:128-f80:128-n8:16:32:64-S128"
target triple = "x86_64-pc-linux-gnu"

; Function Attrs: nounwind uwtable
define internal void @label_event_cb(ptr noundef %0) #0 {
  %2 = alloca ptr, align 8
  %3 = alloca i32, align 4
  %4 = alloca ptr, align 8
  %5 = alloca ptr, align 8
  store ptr %0, ptr %2, align 8, !tbaa !30
  call void @llvm.lifetime.start.p0(i64 4, ptr %3) #6
  %6 = load ptr, ptr %2, align 8, !tbaa !30
  %7 = call i32 @lv_event_get_code(ptr noundef %6)
  store i32 %7, ptr %3, align 4, !tbaa !32
  call void @llvm.lifetime.start.p0(i64 8, ptr %4) #6
  %8 = load ptr, ptr %2, align 8, !tbaa !30
  %9 = call ptr @lv_event_get_current_target(ptr noundef %8)
  store ptr %9, ptr %4, align 8, !tbaa !8
  call void @llvm.lifetime.start.p0(i64 8, ptr %5) #6
  %10 = load ptr, ptr %4, align 8, !tbaa !8
  %11 = call ptr @lv_obj_get_parent(ptr noundef %10)
  store ptr %11, ptr %5, align 8, !tbaa !8
  %12 = load i32, ptr %3, align 4, !tbaa !32
  %13 = icmp eq i32 %12, 50
  br i1 %13, label %17, label %14

14:                                               ; preds = %1
  %15 = load i32, ptr %3, align 4, !tbaa !32
  %16 = icmp eq i32 %15, 49
  br i1 %16, label %17, label %21

17:                                               ; preds = %14, %1
  %18 = load ptr, ptr %4, align 8, !tbaa !8
  call void @lv_label_set_text(ptr noundef %18, ptr noundef null)
  %19 = load ptr, ptr %5, align 8, !tbaa !8
  call void @refr_cursor_area(ptr noundef %19)
  %20 = load ptr, ptr %5, align 8, !tbaa !8
  call void @start_cursor_blink(ptr noundef %20)
  br label %21

21:                                               ; preds = %17, %14
  call void @llvm.lifetime.end.p0(i64 8, ptr %5) #6
  call void @llvm.lifetime.end.p0(i64 8, ptr %4) #6
  call void @llvm.lifetime.end.p0(i64 4, ptr %3) #6
  ret void
}