; Function Attrs: nounwind uwtable
define internal void @label_event_cb(ptr noundef %0) #0 {
  %2 = tail call i32 @lv_event_get_code(ptr noundef %0) #10
  %3 = tail call ptr @lv_event_get_current_target(ptr noundef %0) #10
  %4 = tail call ptr @lv_obj_get_parent(ptr noundef %3) #10
  %5 = add i32 %2, -49
  %or.cond = icmp ult i32 %5, 2
  br i1 %or.cond, label %6, label %7

6:                                                ; preds = %1
  tail call void @lv_label_set_text(ptr noundef %3, ptr noundef null) #10
  tail call fastcc void @refr_cursor_area(ptr noundef %4)
  tail call fastcc void @start_cursor_blink(ptr noundef %4)
  br label %7

7:                                                ; preds = %1, %6
  ret void
}